target datalayout = "e-m:e-p270:32:32-p271:32:32-p272:64:64-i64:64-i128:128-f80:128-n8:16:32:64-S128"
target triple = "x86_64-pc-linux-gnu"

%struct.AVFilterContext = type { ptr, ptr, ptr, ptr, ptr, i32, ptr, ptr, i32, ptr, ptr, i32, i32, ptr, ptr, ptr, ptr, i32, ptr, i32, i32 }
%struct.BilateralContext = type { ptr, float, float, i32, i32, i32, i32, [4 x i32], [4 x i32], float, [65536 x float], [4 x ptr], [4 x ptr], [4 x ptr], [4 x ptr], [4 x ptr], [4 x ptr], [4 x ptr], [4 x ptr] }

; Function Attrs: cold nounwind optsize uwtable
define internal void @uninit(ptr noundef %0) #0 {
  %2 = alloca ptr, align 8
  %3 = alloca ptr, align 8
  %4 = alloca i32, align 4
  store ptr %0, ptr %2, align 8, !tbaa !4
  call void @llvm.lifetime.start.p0(i64 8, ptr %3) #8
  %5 = load ptr, ptr %2, align 8, !tbaa !4
  %6 = getelementptr inbounds nuw %struct.AVFilterContext, ptr %5, i32 0, i32 9
  %7 = load ptr, ptr %6, align 8, !tbaa !9
  store ptr %7, ptr %3, align 8, !tbaa !22
  call void @llvm.lifetime.start.p0(i64 4, ptr %4) #8
  store i32 0, ptr %4, align 4, !tbaa !24
  br label %8

8:                                                ; preds = %56, %1
  %9 = load i32, ptr %4, align 4, !tbaa !24
  %10 = load ptr, ptr %3, align 8, !tbaa !22
  %11 = getelementptr inbounds nuw %struct.BilateralContext, ptr %10, i32 0, i32 5
  %12 = load i32, ptr %11, align 8, !tbaa !25
  %13 = icmp slt i32 %9, %12
  br i1 %13, label %15, label %14

14:                                               ; preds = %8
  call void @llvm.lifetime.end.p0(i64 4, ptr %4) #8
  br label %59

15:                                               ; preds = %8
  %16 = load ptr, ptr %3, align 8, !tbaa !22
  %17 = getelementptr inbounds nuw %struct.BilateralContext, ptr %16, i32 0, i32 11
  %18 = load i32, ptr %4, align 4, !tbaa !24
  %19 = sext i32 %18 to i64
  %20 = getelementptr inbounds [4 x ptr], ptr %17, i64 0, i64 %19
  call void @av_freep(ptr noundef %20)
  %21 = load ptr, ptr %3, align 8, !tbaa !22
  %22 = getelementptr inbounds nuw %struct.BilateralContext, ptr %21, i32 0, i32 12
  %23 = load i32, ptr %4, align 4, !tbaa !24
  %24 = sext i32 %23 to i64
  %25 = getelementptr inbounds [4 x ptr], ptr %22, i64 0, i64 %24
  call void @av_freep(ptr noundef %25)
  %26 = load ptr, ptr %3, align 8, !tbaa !22
  %27 = getelementptr inbounds nuw %struct.BilateralContext, ptr %26, i32 0, i32 13
  %28 = load i32, ptr %4, align 4, !tbaa !24
  %29 = sext i32 %28 to i64
  %30 = getelementptr inbounds [4 x ptr], ptr %27, i64 0, i64 %29
  call void @av_freep(ptr noundef %30)
  %31 = load ptr, ptr %3, align 8, !tbaa !22
  %32 = getelementptr inbounds nuw %struct.BilateralContext, ptr %31, i32 0, i32 14
  %33 = load i32, ptr %4, align 4, !tbaa !24
  %34 = sext i32 %33 to i64
  %35 = getelementptr inbounds [4 x ptr], ptr %32, i64 0, i64 %34
  call void @av_freep(ptr noundef %35)
  %36 = load ptr, ptr %3, align 8, !tbaa !22
  %37 = getelementptr inbounds nuw %struct.BilateralContext, ptr %36, i32 0, i32 15
  %38 = load i32, ptr %4, align 4, !tbaa !24
  %39 = sext i32 %38 to i64
  %40 = getelementptr inbounds [4 x ptr], ptr %37, i64 0, i64 %39
  call void @av_freep(ptr noundef %40)
  %41 = load ptr, ptr %3, align 8, !tbaa !22
  %42 = getelementptr inbounds nuw %struct.BilateralContext, ptr %41, i32 0, i32 16
  %43 = load i32, ptr %4, align 4, !tbaa !24
  %44 = sext i32 %43 to i64
  %45 = getelementptr inbounds [4 x ptr], ptr %42, i64 0, i64 %44
  call void @av_freep(ptr noundef %45)
  %46 = load ptr, ptr %3, align 8, !tbaa !22
  %47 = getelementptr inbounds nuw %struct.BilateralContext, ptr %46, i32 0, i32 17
  %48 = load i32, ptr %4, align 4, !tbaa !24
  %49 = sext i32 %48 to i64
  %50 = getelementptr inbounds [4 x ptr], ptr %47, i64 0, i64 %49
  call void @av_freep(ptr noundef %50)
  %51 = load ptr, ptr %3, align 8, !tbaa !22
  %52 = getelementptr inbounds nuw %struct.BilateralContext, ptr %51, i32 0, i32 18
  %53 = load i32, ptr %4, align 4, !tbaa !24
  %54 = sext i32 %53 to i64
  %55 = getelementptr inbounds [4 x ptr], ptr %52, i64 0, i64 %54
  call void @av_freep(ptr noundef %55)
  br label %56

56:                                               ; preds = %15
  %57 = load i32, ptr %4, align 4, !tbaa !24
  %58 = add nsw i32 %57, 1
  store i32 %58, ptr %4, align 4, !tbaa !24
  br label %8, !llvm.loop !28

59:                                               ; preds = %14
  call void @llvm.lifetime.end.p0(i64 8, ptr %3) #8
  ret void
}