; Function Attrs: cold nounwind optsize uwtable
define internal void @uninit(ptr noundef readonly captures(none) %0) #0 {
  %2 = getelementptr inbounds nuw i8, ptr %0, i64 72
  %3 = load ptr, ptr %2, align 8, !tbaa !4
  %4 = getelementptr inbounds nuw i8, ptr %3, i64 24
  %5 = load i32, ptr %4, align 8, !tbaa !20
  %6 = icmp sgt i32 %5, 0
  br i1 %6, label %.lr.ph, label %._crit_edge

.lr.ph:                                           ; preds = %1
  %7 = getelementptr inbounds nuw i8, ptr %3, i64 262216
  %8 = getelementptr inbounds nuw i8, ptr %3, i64 262248
  %9 = getelementptr inbounds nuw i8, ptr %3, i64 262280
  %10 = getelementptr inbounds nuw i8, ptr %3, i64 262312
  %11 = getelementptr inbounds nuw i8, ptr %3, i64 262344
  %12 = getelementptr inbounds nuw i8, ptr %3, i64 262376
  %13 = getelementptr inbounds nuw i8, ptr %3, i64 262408
  %14 = getelementptr inbounds nuw i8, ptr %3, i64 262440
  br label %15

._crit_edge:                                      ; preds = %15, %1
  ret void

15:                                               ; preds = %.lr.ph, %15
  %indvars.iv = phi i64 [ 0, %.lr.ph ], [ %indvars.iv.next, %15 ]
  %16 = getelementptr inbounds nuw [4 x ptr], ptr %7, i64 0, i64 %indvars.iv
  tail call void @av_freep(ptr noundef nonnull %16) #8
  %17 = getelementptr inbounds nuw [4 x ptr], ptr %8, i64 0, i64 %indvars.iv
  tail call void @av_freep(ptr noundef nonnull %17) #8
  %18 = getelementptr inbounds nuw [4 x ptr], ptr %9, i64 0, i64 %indvars.iv
  tail call void @av_freep(ptr noundef nonnull %18) #8
  %19 = getelementptr inbounds nuw [4 x ptr], ptr %10, i64 0, i64 %indvars.iv
  tail call void @av_freep(ptr noundef nonnull %19) #8
  %20 = getelementptr inbounds nuw [4 x ptr], ptr %11, i64 0, i64 %indvars.iv
  tail call void @av_freep(ptr noundef nonnull %20) #8
  %21 = getelementptr inbounds nuw [4 x ptr], ptr %12, i64 0, i64 %indvars.iv
  tail call void @av_freep(ptr noundef nonnull %21) #8
  %22 = getelementptr inbounds nuw [4 x ptr], ptr %13, i64 0, i64 %indvars.iv
  tail call void @av_freep(ptr noundef nonnull %22) #8
  %23 = getelementptr inbounds nuw [4 x ptr], ptr %14, i64 0, i64 %indvars.iv
  tail call void @av_freep(ptr noundef nonnull %23) #8
  %indvars.iv.next = add nuw nsw i64 %indvars.iv, 1
  %24 = load i32, ptr %4, align 8, !tbaa !20
  %25 = sext i32 %24 to i64
  %26 = icmp slt i64 %indvars.iv.next, %25
  br i1 %26, label %15, label %._crit_edge, !llvm.loop !23
}